target datalayout = "e-m:e-p270:32:32-p271:32:32-p272:64:64-i64:64-i128:128-f80:128-n8:16:32:64-S128"
target triple = "x86_64-pc-linux-gnu"

; Function Attrs: nounwind uwtable
define i32 @H5LT_set_attribute_numerical(i64 noundef %0, ptr noundef %1, ptr noundef %2, i64 noundef %3, i64 noundef %4, ptr noundef %5) #0 {
  %7 = alloca i32, align 4
  %8 = alloca i64, align 8
  %9 = alloca ptr, align 8
  %10 = alloca ptr, align 8
  %11 = alloca i64, align 8
  %12 = alloca i64, align 8
  %13 = alloca ptr, align 8
  %14 = alloca i64, align 8
  %15 = alloca i64, align 8
  %16 = alloca i64, align 8
  %17 = alloca i64, align 8
  %18 = alloca i32, align 4
  %19 = alloca i32, align 4
  store i64 %0, ptr %8, align 8, !tbaa !3
  store ptr %1, ptr %9, align 8, !tbaa !7
  store ptr %2, ptr %10, align 8, !tbaa !7
  store i64 %3, ptr %11, align 8, !tbaa !3
  store i64 %4, ptr %12, align 8, !tbaa !3
  store ptr %5, ptr %13, align 8, !tbaa !14
  call void @llvm.lifetime.start.p0(i64 8, ptr %14) #11
  call void @llvm.lifetime.start.p0(i64 8, ptr %15) #11
  call void @llvm.lifetime.start.p0(i64 8, ptr %16) #11
  call void @llvm.lifetime.start.p0(i64 8, ptr %17) #11
  %20 = load i64, ptr %11, align 8, !tbaa !3
  store i64 %20, ptr %17, align 8, !tbaa !3
  call void @llvm.lifetime.start.p0(i64 4, ptr %18) #11
  %21 = load ptr, ptr %9, align 8, !tbaa !7
  %22 = icmp eq ptr %21, null
  br i1 %22, label %23, label %24

23:                                               ; preds = %6
  store i32 -1, ptr %7, align 4
  store i32 1, ptr %19, align 4
  br label %88

24:                                               ; preds = %6
  %25 = load ptr, ptr %10, align 8, !tbaa !7
  %26 = icmp eq ptr %25, null
  br i1 %26, label %27, label %28

27:                                               ; preds = %24
  store i32 -1, ptr %7, align 4
  store i32 1, ptr %19, align 4
  br label %88

28:                                               ; preds = %24
  %29 = load i64, ptr %8, align 8, !tbaa !3
  %30 = load ptr, ptr %9, align 8, !tbaa !7
  %31 = call i64 @H5Oopen(i64 noundef %29, ptr noundef %30, i64 noundef 0)
  store i64 %31, ptr %14, align 8, !tbaa !3
  %32 = icmp slt i64 %31, 0
  br i1 %32, label %33, label %34

33:                                               ; preds = %28
  store i32 -1, ptr %7, align 4
  store i32 1, ptr %19, align 4
  br label %88

34:                                               ; preds = %28
  %35 = call i64 @H5Screate_simple(i32 noundef 1, ptr noundef %17, ptr noundef null)
  store i64 %35, ptr %15, align 8, !tbaa !3
  %36 = icmp slt i64 %35, 0
  br i1 %36, label %37, label %38

37:                                               ; preds = %34
  br label %85

38:                                               ; preds = %34
  %39 = load i64, ptr %14, align 8, !tbaa !3
  %40 = load ptr, ptr %10, align 8, !tbaa !7
  %41 = call i32 @H5Aexists(i64 noundef %39, ptr noundef %40)
  store i32 %41, ptr %18, align 4, !tbaa !10
  %42 = icmp slt i32 %41, 0
  br i1 %42, label %43, label %44

43:                                               ; preds = %38
  br label %85

44:                                               ; preds = %38
  %45 = load i32, ptr %18, align 4, !tbaa !10
  %46 = icmp sgt i32 %45, 0
  br i1 %46, label %47, label %54

47:                                               ; preds = %44
  %48 = load i64, ptr %14, align 8, !tbaa !3
  %49 = load ptr, ptr %10, align 8, !tbaa !7
  %50 = call i32 @H5Adelete(i64 noundef %48, ptr noundef %49)
  %51 = icmp slt i32 %50, 0
  br i1 %51, label %52, label %53

52:                                               ; preds = %47
  br label %85

53:                                               ; preds = %47
  br label %54

54:                                               ; preds = %53, %44
  %55 = load i64, ptr %14, align 8, !tbaa !3
  %56 = load ptr, ptr %10, align 8, !tbaa !7
  %57 = load i64, ptr %12, align 8, !tbaa !3
  %58 = load i64, ptr %15, align 8, !tbaa !3
  %59 = call i64 @H5Acreate2(i64 noundef %55, ptr noundef %56, i64 noundef %57, i64 noundef %58, i64 noundef 0, i64 noundef 0)
  store i64 %59, ptr %16, align 8, !tbaa !3
  %60 = icmp slt i64 %59, 0
  br i1 %60, label %61, label %62

61:                                               ; preds = %54
  br label %85

62:                                               ; preds = %54
  %63 = load i64, ptr %16, align 8, !tbaa !3
  %64 = load i64, ptr %12, align 8, !tbaa !3
  %65 = load ptr, ptr %13, align 8, !tbaa !14
  %66 = call i32 @H5Awrite(i64 noundef %63, i64 noundef %64, ptr noundef %65)
  %67 = icmp slt i32 %66, 0
  br i1 %67, label %68, label %69

68:                                               ; preds = %62
  br label %85

69:                                               ; preds = %62
  %70 = load i64, ptr %16, align 8, !tbaa !3
  %71 = call i32 @H5Aclose(i64 noundef %70)
  %72 = icmp slt i32 %71, 0
  br i1 %72, label %73, label %74

73:                                               ; preds = %69
  br label %85

74:                                               ; preds = %69
  %75 = load i64, ptr %15, align 8, !tbaa !3
  %76 = call i32 @H5Sclose(i64 noundef %75)
  %77 = icmp slt i32 %76, 0
  br i1 %77, label %78, label %79

78:                                               ; preds = %74
  br label %85

79:                                               ; preds = %74
  %80 = load i64, ptr %14, align 8, !tbaa !3
  %81 = call i32 @H5Oclose(i64 noundef %80)
  %82 = icmp slt i32 %81, 0
  br i1 %82, label %83, label %84

83:                                               ; preds = %79
  store i32 -1, ptr %7, align 4
  store i32 1, ptr %19, align 4
  br label %88

84:                                               ; preds = %79
  store i32 0, ptr %7, align 4
  store i32 1, ptr %19, align 4
  br label %88

85:                                               ; preds = %78, %73, %68, %61, %52, %43, %37
  %86 = load i64, ptr %14, align 8, !tbaa !3
  %87 = call i32 @H5Oclose(i64 noundef %86)
  store i32 -1, ptr %7, align 4
  store i32 1, ptr %19, align 4
  br label %88

88:                                               ; preds = %85, %84, %83, %33, %27, %23
  call void @llvm.lifetime.end.p0(i64 4, ptr %18) #11
  call void @llvm.lifetime.end.p0(i64 8, ptr %17) #11
  call void @llvm.lifetime.end.p0(i64 8, ptr %16) #11
  call void @llvm.lifetime.end.p0(i64 8, ptr %15) #11
  call void @llvm.lifetime.end.p0(i64 8, ptr %14) #11
  %89 = load i32, ptr %7, align 4
  ret i32 %89
}