; Function Attrs: nounwind uwtable
define range(i32 -1, 1) i32 @H5LT_set_attribute_numerical(i64 noundef %0, ptr noundef %1, ptr noundef %2, i64 noundef %3, i64 noundef %4, ptr noundef %5) local_unnamed_addr #0 {
  %7 = alloca i64, align 8
  call void @llvm.lifetime.start.p0(i64 8, ptr nonnull %7) #20
  store i64 %3, ptr %7, align 8, !tbaa !15
  %8 = icmp eq ptr %1, null
  %9 = icmp eq ptr %2, null
  %or.cond = or i1 %8, %9
  br i1 %or.cond, label %39, label %10

10:                                               ; preds = %6
  %11 = tail call i64 @H5Oopen(i64 noundef %0, ptr noundef nonnull %1, i64 noundef 0) #20
  %12 = icmp slt i64 %11, 0
  br i1 %12, label %39, label %13

13:                                               ; preds = %10
  %14 = call i64 @H5Screate_simple(i32 noundef 1, ptr noundef nonnull %7, ptr noundef null) #20
  %15 = icmp slt i64 %14, 0
  br i1 %15, label %37, label %16

16:                                               ; preds = %13
  %17 = call i32 @H5Aexists(i64 noundef %11, ptr noundef nonnull %2) #20
  %18 = icmp slt i32 %17, 0
  br i1 %18, label %37, label %19

19:                                               ; preds = %16
  %.not = icmp eq i32 %17, 0
  br i1 %.not, label %23, label %20

20:                                               ; preds = %19
  %21 = call i32 @H5Adelete(i64 noundef %11, ptr noundef nonnull %2) #20
  %22 = icmp slt i32 %21, 0
  br i1 %22, label %37, label %23

23:                                               ; preds = %20, %19
  %24 = call i64 @H5Acreate2(i64 noundef %11, ptr noundef nonnull %2, i64 noundef %4, i64 noundef %14, i64 noundef 0, i64 noundef 0) #20
  %25 = icmp slt i64 %24, 0
  br i1 %25, label %37, label %26

26:                                               ; preds = %23
  %27 = call i32 @H5Awrite(i64 noundef %24, i64 noundef %4, ptr noundef %5) #20
  %28 = icmp slt i32 %27, 0
  br i1 %28, label %37, label %29

29:                                               ; preds = %26
  %30 = call i32 @H5Aclose(i64 noundef %24) #20
  %31 = icmp slt i32 %30, 0
  br i1 %31, label %37, label %32

32:                                               ; preds = %29
  %33 = call i32 @H5Sclose(i64 noundef %14) #20
  %34 = icmp slt i32 %33, 0
  br i1 %34, label %37, label %35

35:                                               ; preds = %32
  %36 = call i32 @H5Oclose(i64 noundef %11) #20
  %.lobit = ashr i32 %36, 31
  br label %39

37:                                               ; preds = %32, %29, %26, %23, %20, %16, %13
  %38 = call i32 @H5Oclose(i64 noundef %11) #20
  br label %39

39:                                               ; preds = %35, %10, %6, %37
  %.0 = phi i32 [ -1, %37 ], [ -1, %6 ], [ -1, %10 ], [ %.lobit, %35 ]
  call void @llvm.lifetime.end.p0(i64 8, ptr nonnull %7) #20
  ret i32 %.0
}